; Function Attrs: nounwind uwtable
define hidden void @X11_DestroyPointerBarrier(ptr noundef readonly captures(none) %0, ptr noundef readonly captures(address_is_null) %1) local_unnamed_addr #0 {
  %3 = getelementptr inbounds nuw i8, ptr %0, i64 1656
  %4 = load ptr, ptr %3, align 8
  %.not = icmp eq ptr %1, null
  br i1 %.not, label %20, label %5

5:                                                ; preds = %2
  %6 = getelementptr inbounds nuw i8, ptr %1, i64 392
  %7 = load ptr, ptr %6, align 8
  %8 = getelementptr inbounds nuw i8, ptr %7, i64 400
  br label %9

9:                                                ; preds = %5, %15
  %indvars.iv = phi i64 [ 0, %5 ], [ %indvars.iv.next, %15 ]
  %10 = getelementptr inbounds nuw [4 x i64], ptr %8, i64 0, i64 %indvars.iv
  %11 = load i64, ptr %10, align 8
  %.not15 = icmp eq i64 %11, 0
  br i1 %.not15, label %15, label %12

12:                                               ; preds = %9
  %13 = load ptr, ptr @X11_XFixesDestroyPointerBarrier, align 8
  %14 = load ptr, ptr %4, align 8
  tail call void %13(ptr noundef %14, i64 noundef %11) #7
  store i64 0, ptr %10, align 8
  br label %15

15:                                               ; preds = %9, %12
  %indvars.iv.next = add nuw nsw i64 %indvars.iv, 1
  %exitcond.not = icmp eq i64 %indvars.iv.next, 4
  br i1 %exitcond.not, label %16, label %9, !llvm.loop !3

16:                                               ; preds = %15
  %17 = load ptr, ptr @X11_XFlush, align 8
  %18 = load ptr, ptr %4, align 8
  %19 = tail call i32 %17(ptr noundef %18) #7
  br label %20

20:                                               ; preds = %16, %2
  %21 = getelementptr inbounds nuw i8, ptr %4, i64 160
  store ptr null, ptr %21, align 8
  ret void
}